; Function Attrs: cold nounwind optsize uwtable
define internal noundef i32 @pixlet_close(ptr noundef readonly captures(none) %0) #2 {
  %2 = getelementptr inbounds nuw i8, ptr %0, i64 32
  %3 = load ptr, ptr %2, align 8, !tbaa !28
  %4 = getelementptr inbounds nuw i8, ptr %3, i64 80
  tail call void @av_freep(ptr noundef nonnull %4) #10
  %5 = getelementptr inbounds nuw i8, ptr %3, i64 88
  tail call void @av_freep(ptr noundef nonnull %5) #10
  %6 = getelementptr inbounds nuw i8, ptr %3, i64 96
  tail call void @av_freep(ptr noundef nonnull %6) #10
  %7 = getelementptr inbounds nuw i8, ptr %3, i64 72
  store i32 0, ptr %7, align 8, !tbaa !48
  %8 = getelementptr inbounds nuw i8, ptr %3, i64 76
  store i32 0, ptr %8, align 4, !tbaa !49
  ret i32 0
}